target datalayout = "e-m:e-p270:32:32-p271:32:32-p272:64:64-i64:64-i128:128-f80:128-n8:16:32:64-S128"
target triple = "x86_64-pc-linux-gnu"

%"struct.google::protobuf::internal::ExtensionSet::Extension" = type { %union.anon, i8, i8, i8, i8, i32, ptr }
%union.anon = type { i64 }
%"class.google::protobuf::internal::RepeatedPtrFieldBase" = type { ptr, i32, i32, ptr }
%"struct.google::protobuf::internal::RepeatedPtrFieldBase::Rep" = type { i32, [268435454 x ptr] }

; Function Attrs: inlinehint mustprogress nounwind uwtable
define linkonce_odr hidden void @_ZN6google8protobuf8internal18GenericTypeHandlerINS0_11MessageLiteEE6DeleteEPS3_PNS0_5ArenaE(ptr noundef %0, ptr noundef %1) #7 comdat align 2 {
  %3 = alloca ptr, align 8
  %4 = alloca ptr, align 8
  store ptr %0, ptr %3, align 8, !tbaa !64
  store ptr %1, ptr %4, align 8, !tbaa !85
  %5 = load ptr, ptr %4, align 8, !tbaa !85
  %6 = icmp eq ptr %5, null
  br i1 %6, label %7, label %15

7:                                                ; preds = %2
  %8 = load ptr, ptr %3, align 8, !tbaa !64
  %9 = icmp eq ptr %8, null
  br i1 %9, label %14, label %10

10:                                               ; preds = %7
  %11 = load ptr, ptr %8, align 8, !tbaa !46
  %12 = getelementptr inbounds ptr, ptr %11, i64 1
  %13 = load ptr, ptr %12, align 8
  call void %13(ptr noundef nonnull align 8 dereferenceable(16) %8) #3
  br label %14

14:                                               ; preds = %10, %7
  br label %15

15:                                               ; preds = %14, %2
  ret void
}

; Function Attrs: inlinehint mustprogress nounwind uwtable
define linkonce_odr hidden noundef ptr @_ZN6google8protobuf8internal20RepeatedPtrFieldBase4castINS0_16RepeatedPtrFieldINS0_11MessageLiteEE11TypeHandlerEEEPNT_4TypeEPv(ptr noundef %0) #7 comdat align 2 {
  %2 = alloca ptr, align 8
  store ptr %0, ptr %2, align 8, !tbaa !76
  %3 = load ptr, ptr %2, align 8, !tbaa !76
  ret ptr %3
}

; Function Attrs: mustprogress uwtable
define linkonce_odr hidden void @_ZN6google8protobuf8internal20RepeatedPtrFieldBase23UnsafeArenaAddAllocatedINS0_16RepeatedPtrFieldINS0_11MessageLiteEE11TypeHandlerEEEvPNT_4TypeE(ptr noundef nonnull align 8 dereferenceable(24) %0, ptr noundef %1) #4 comdat align 2 {
  %3 = alloca ptr, align 8
  %4 = alloca ptr, align 8
  store ptr %0, ptr %3, align 8, !tbaa !86
  store ptr %1, ptr %4, align 8, !tbaa !64
  %5 = load ptr, ptr %3, align 8
  %6 = getelementptr inbounds nuw %"class.google::protobuf::internal::RepeatedPtrFieldBase", ptr %5, i32 0, i32 3
  %7 = load ptr, ptr %6, align 8, !tbaa !88
  %8 = icmp ne ptr %7, null
  br i1 %8, label %9, label %15

9:                                                ; preds = %2
  %10 = getelementptr inbounds nuw %"class.google::protobuf::internal::RepeatedPtrFieldBase", ptr %5, i32 0, i32 1
  %11 = load i32, ptr %10, align 8, !tbaa !91
  %12 = getelementptr inbounds nuw %"class.google::protobuf::internal::RepeatedPtrFieldBase", ptr %5, i32 0, i32 2
  %13 = load i32, ptr %12, align 4, !tbaa !235
  %14 = icmp eq i32 %11, %13
  br i1 %14, label %15, label %24

15:                                               ; preds = %9, %2
  %16 = getelementptr inbounds nuw %"class.google::protobuf::internal::RepeatedPtrFieldBase", ptr %5, i32 0, i32 2
  %17 = load i32, ptr %16, align 4, !tbaa !235
  %18 = add nsw i32 %17, 1
  call void @_ZN6google8protobuf8internal20RepeatedPtrFieldBase7ReserveEi(ptr noundef nonnull align 8 dereferenceable(24) %5, i32 noundef %18)
  %19 = getelementptr inbounds nuw %"class.google::protobuf::internal::RepeatedPtrFieldBase", ptr %5, i32 0, i32 3
  %20 = load ptr, ptr %19, align 8, !tbaa !88
  %21 = getelementptr inbounds nuw %"struct.google::protobuf::internal::RepeatedPtrFieldBase::Rep", ptr %20, i32 0, i32 0
  %22 = load i32, ptr %21, align 8, !tbaa !92
  %23 = add nsw i32 %22, 1
  store i32 %23, ptr %21, align 8, !tbaa !92
  br label %83

24:                                               ; preds = %9
  %25 = getelementptr inbounds nuw %"class.google::protobuf::internal::RepeatedPtrFieldBase", ptr %5, i32 0, i32 3
  %26 = load ptr, ptr %25, align 8, !tbaa !88
  %27 = getelementptr inbounds nuw %"struct.google::protobuf::internal::RepeatedPtrFieldBase::Rep", ptr %26, i32 0, i32 0
  %28 = load i32, ptr %27, align 8, !tbaa !92
  %29 = getelementptr inbounds nuw %"class.google::protobuf::internal::RepeatedPtrFieldBase", ptr %5, i32 0, i32 2
  %30 = load i32, ptr %29, align 4, !tbaa !235
  %31 = icmp eq i32 %28, %30
  br i1 %31, label %32, label %44

32:                                               ; preds = %24
  %33 = getelementptr inbounds nuw %"class.google::protobuf::internal::RepeatedPtrFieldBase", ptr %5, i32 0, i32 3
  %34 = load ptr, ptr %33, align 8, !tbaa !88
  %35 = getelementptr inbounds nuw %"struct.google::protobuf::internal::RepeatedPtrFieldBase::Rep", ptr %34, i32 0, i32 1
  %36 = getelementptr inbounds nuw %"class.google::protobuf::internal::RepeatedPtrFieldBase", ptr %5, i32 0, i32 1
  %37 = load i32, ptr %36, align 8, !tbaa !91
  %38 = sext i32 %37 to i64
  %39 = getelementptr inbounds [268435454 x ptr], ptr %35, i64 0, i64 %38
  %40 = load ptr, ptr %39, align 8, !tbaa !76
  %41 = call noundef ptr @_ZN6google8protobuf8internal20RepeatedPtrFieldBase4castINS0_16RepeatedPtrFieldINS0_11MessageLiteEE11TypeHandlerEEEPNT_4TypeEPv(ptr noundef %40)
  %42 = getelementptr inbounds nuw %"class.google::protobuf::internal::RepeatedPtrFieldBase", ptr %5, i32 0, i32 0
  %43 = load ptr, ptr %42, align 8, !tbaa !321
  call void @_ZN6google8protobuf8internal18GenericTypeHandlerINS0_11MessageLiteEE6DeleteEPS3_PNS0_5ArenaE(ptr noundef %41, ptr noundef %43)
  br label %82

44:                                               ; preds = %24
  %45 = getelementptr inbounds nuw %"class.google::protobuf::internal::RepeatedPtrFieldBase", ptr %5, i32 0, i32 1
  %46 = load i32, ptr %45, align 8, !tbaa !91
  %47 = getelementptr inbounds nuw %"class.google::protobuf::internal::RepeatedPtrFieldBase", ptr %5, i32 0, i32 3
  %48 = load ptr, ptr %47, align 8, !tbaa !88
  %49 = getelementptr inbounds nuw %"struct.google::protobuf::internal::RepeatedPtrFieldBase::Rep", ptr %48, i32 0, i32 0
  %50 = load i32, ptr %49, align 8, !tbaa !92
  %51 = icmp slt i32 %46, %50
  br i1 %51, label %52, label %75

52:                                               ; preds = %44
  %53 = getelementptr inbounds nuw %"class.google::protobuf::internal::RepeatedPtrFieldBase", ptr %5, i32 0, i32 3
  %54 = load ptr, ptr %53, align 8, !tbaa !88
  %55 = getelementptr inbounds nuw %"struct.google::protobuf::internal::RepeatedPtrFieldBase::Rep", ptr %54, i32 0, i32 1
  %56 = getelementptr inbounds nuw %"class.google::protobuf::internal::RepeatedPtrFieldBase", ptr %5, i32 0, i32 1
  %57 = load i32, ptr %56, align 8, !tbaa !91
  %58 = sext i32 %57 to i64
  %59 = getelementptr inbounds [268435454 x ptr], ptr %55, i64 0, i64 %58
  %60 = load ptr, ptr %59, align 8, !tbaa !76
  %61 = getelementptr inbounds nuw %"class.google::protobuf::internal::RepeatedPtrFieldBase", ptr %5, i32 0, i32 3
  %62 = load ptr, ptr %61, align 8, !tbaa !88
  %63 = getelementptr inbounds nuw %"struct.google::protobuf::internal::RepeatedPtrFieldBase::Rep", ptr %62, i32 0, i32 1
  %64 = getelementptr inbounds nuw %"class.google::protobuf::internal::RepeatedPtrFieldBase", ptr %5, i32 0, i32 3
  %65 = load ptr, ptr %64, align 8, !tbaa !88
  %66 = getelementptr inbounds nuw %"struct.google::protobuf::internal::RepeatedPtrFieldBase::Rep", ptr %65, i32 0, i32 0
  %67 = load i32, ptr %66, align 8, !tbaa !92
  %68 = sext i32 %67 to i64
  %69 = getelementptr inbounds [268435454 x ptr], ptr %63, i64 0, i64 %68
  store ptr %60, ptr %69, align 8, !tbaa !76
  %70 = getelementptr inbounds nuw %"class.google::protobuf::internal::RepeatedPtrFieldBase", ptr %5, i32 0, i32 3
  %71 = load ptr, ptr %70, align 8, !tbaa !88
  %72 = getelementptr inbounds nuw %"struct.google::protobuf::internal::RepeatedPtrFieldBase::Rep", ptr %71, i32 0, i32 0
  %73 = load i32, ptr %72, align 8, !tbaa !92
  %74 = add nsw i32 %73, 1
  store i32 %74, ptr %72, align 8, !tbaa !92
  br label %81

75:                                               ; preds = %44
  %76 = getelementptr inbounds nuw %"class.google::protobuf::internal::RepeatedPtrFieldBase", ptr %5, i32 0, i32 3
  %77 = load ptr, ptr %76, align 8, !tbaa !88
  %78 = getelementptr inbounds nuw %"struct.google::protobuf::internal::RepeatedPtrFieldBase::Rep", ptr %77, i32 0, i32 0
  %79 = load i32, ptr %78, align 8, !tbaa !92
  %80 = add nsw i32 %79, 1
  store i32 %80, ptr %78, align 8, !tbaa !92
  br label %81

81:                                               ; preds = %75, %52
  br label %82

82:                                               ; preds = %81, %32
  br label %83

83:                                               ; preds = %82, %15
  %84 = load ptr, ptr %4, align 8, !tbaa !64
  %85 = getelementptr inbounds nuw %"class.google::protobuf::internal::RepeatedPtrFieldBase", ptr %5, i32 0, i32 3
  %86 = load ptr, ptr %85, align 8, !tbaa !88
  %87 = getelementptr inbounds nuw %"struct.google::protobuf::internal::RepeatedPtrFieldBase::Rep", ptr %86, i32 0, i32 1
  %88 = getelementptr inbounds nuw %"class.google::protobuf::internal::RepeatedPtrFieldBase", ptr %5, i32 0, i32 1
  %89 = load i32, ptr %88, align 8, !tbaa !91
  %90 = add nsw i32 %89, 1
  store i32 %90, ptr %88, align 8, !tbaa !91
  %91 = sext i32 %89 to i64
  %92 = getelementptr inbounds [268435454 x ptr], ptr %87, i64 0, i64 %91
  store ptr %84, ptr %92, align 8, !tbaa !76
  ret void
}

; Function Attrs: inlinehint mustprogress uwtable
define linkonce_odr hidden void @_ZN6google8protobuf16RepeatedPtrFieldINS0_11MessageLiteEE23UnsafeArenaAddAllocatedEPS2_(ptr noundef nonnull align 8 dereferenceable(24) %0, ptr noundef %1) #6 comdat align 2 {
  %3 = alloca ptr, align 8
  %4 = alloca ptr, align 8
  store ptr %0, ptr %3, align 8, !tbaa !94
  store ptr %1, ptr %4, align 8, !tbaa !64
  %5 = load ptr, ptr %3, align 8
  %6 = load ptr, ptr %4, align 8, !tbaa !64
  call void @_ZN6google8protobuf8internal20RepeatedPtrFieldBase23UnsafeArenaAddAllocatedINS0_16RepeatedPtrFieldINS0_11MessageLiteEE11TypeHandlerEEEvPNT_4TypeE(ptr noundef nonnull align 8 dereferenceable(24) %5, ptr noundef %6)
  ret void
}

; Function Attrs: mustprogress uwtable
define hidden void @_ZN6google8protobuf8internal12ExtensionSet30UnsafeArenaAddAllocatedMessageEPKNS0_15FieldDescriptorEPNS0_11MessageLiteE(ptr noundef nonnull align 8 dereferenceable(24) %0, ptr noundef %1, ptr noundef %2) #4 align 2 {
  %4 = alloca ptr, align 8
  %5 = alloca ptr, align 8
  %6 = alloca ptr, align 8
  %7 = alloca ptr, align 8
  store ptr %0, ptr %4, align 8, !tbaa !29
  store ptr %1, ptr %5, align 8, !tbaa !61
  store ptr %2, ptr %6, align 8, !tbaa !64
  %8 = load ptr, ptr %4, align 8
  call void @llvm.lifetime.start.p0(i64 8, ptr %7) #3
  %9 = load ptr, ptr %5, align 8, !tbaa !61
  %10 = call noundef ptr @_ZN6google8protobuf8internal12ExtensionSet25MaybeNewRepeatedExtensionEPKNS0_15FieldDescriptorE(ptr noundef nonnull align 8 dereferenceable(24) %8, ptr noundef %9)
  store ptr %10, ptr %7, align 8, !tbaa !44
  %11 = load ptr, ptr %7, align 8, !tbaa !44
  %12 = getelementptr inbounds nuw %"struct.google::protobuf::internal::ExtensionSet::Extension", ptr %11, i32 0, i32 0
  %13 = load ptr, ptr %12, align 8, !tbaa !26
  %14 = load ptr, ptr %6, align 8, !tbaa !64
  call void @_ZN6google8protobuf16RepeatedPtrFieldINS0_11MessageLiteEE23UnsafeArenaAddAllocatedEPS2_(ptr noundef nonnull align 8 dereferenceable(24) %13, ptr noundef %14)
  call void @llvm.lifetime.end.p0(i64 8, ptr %7) #3
  ret void
}