; Function Attrs: mustprogress uwtable
define hidden void @_ZN6google8protobuf8internal12ExtensionSet30UnsafeArenaAddAllocatedMessageEPKNS0_15FieldDescriptorEPNS0_11MessageLiteE(ptr noundef nonnull align 8 dereferenceable(24) %0, ptr noundef %1, ptr noundef %2) local_unnamed_addr #3 align 2 {
  %4 = tail call noundef ptr @_ZN6google8protobuf8internal12ExtensionSet25MaybeNewRepeatedExtensionEPKNS0_15FieldDescriptorE(ptr noundef nonnull align 8 dereferenceable(24) %0, ptr noundef %1)
  %5 = load ptr, ptr %4, align 8, !tbaa !16
  %6 = getelementptr inbounds nuw i8, ptr %5, i64 16
  %7 = load ptr, ptr %6, align 8, !tbaa !82
  %.not.i.i = icmp eq ptr %7, null
  br i1 %.not.i.i, label %._crit_edge.i.i, label %8

._crit_edge.i.i:                                  ; preds = %3
  %.phi.trans.insert.i.i = getelementptr inbounds nuw i8, ptr %5, i64 12
  %.pre.i.i = load i32, ptr %.phi.trans.insert.i.i, align 4, !tbaa !86
  br label %14

8:                                                ; preds = %3
  %9 = getelementptr inbounds nuw i8, ptr %5, i64 8
  %10 = load i32, ptr %9, align 8, !tbaa !83
  %11 = getelementptr inbounds nuw i8, ptr %5, i64 12
  %12 = load i32, ptr %11, align 4, !tbaa !86
  %13 = icmp eq i32 %10, %12
  br i1 %13, label %14, label %20

14:                                               ; preds = %8, %._crit_edge.i.i
  %15 = phi i32 [ %.pre.i.i, %._crit_edge.i.i ], [ %10, %8 ]
  %16 = add nsw i32 %15, 1
  tail call void @_ZN6google8protobuf8internal20RepeatedPtrFieldBase7ReserveEi(ptr noundef nonnull align 8 dereferenceable(24) %5, i32 noundef %16)
  %17 = load ptr, ptr %6, align 8, !tbaa !82
  %18 = load i32, ptr %17, align 8, !tbaa !84
  %19 = add nsw i32 %18, 1
  store i32 %19, ptr %17, align 8, !tbaa !84
  br label %_ZN6google8protobuf16RepeatedPtrFieldINS0_11MessageLiteEE23UnsafeArenaAddAllocatedEPS2_.exit

20:                                               ; preds = %8
  %21 = load i32, ptr %7, align 8, !tbaa !84
  %22 = icmp eq i32 %21, %12
  br i1 %22, label %23, label %35

23:                                               ; preds = %20
  %24 = getelementptr inbounds nuw i8, ptr %7, i64 8
  %25 = sext i32 %10 to i64
  %26 = getelementptr inbounds [268435454 x ptr], ptr %24, i64 0, i64 %25
  %27 = load ptr, ptr %26, align 8, !tbaa !64
  %28 = load ptr, ptr %5, align 8, !tbaa !79
  %29 = icmp ne ptr %28, null
  %30 = icmp eq ptr %27, null
  %or.cond.i.i.i = or i1 %30, %29
  br i1 %or.cond.i.i.i, label %_ZN6google8protobuf16RepeatedPtrFieldINS0_11MessageLiteEE23UnsafeArenaAddAllocatedEPS2_.exit, label %31

31:                                               ; preds = %23
  %32 = load ptr, ptr %27, align 8, !tbaa !52
  %33 = getelementptr inbounds nuw i8, ptr %32, i64 8
  %34 = load ptr, ptr %33, align 8
  tail call void %34(ptr noundef nonnull align 8 dereferenceable(16) %27) #21
  %.pre5.i.i = load ptr, ptr %6, align 8, !tbaa !82
  br label %_ZN6google8protobuf16RepeatedPtrFieldINS0_11MessageLiteEE23UnsafeArenaAddAllocatedEPS2_.exit

35:                                               ; preds = %20
  %36 = icmp slt i32 %10, %21
  br i1 %36, label %37, label %47

37:                                               ; preds = %35
  %38 = getelementptr inbounds nuw i8, ptr %7, i64 8
  %39 = sext i32 %10 to i64
  %40 = getelementptr inbounds [268435454 x ptr], ptr %38, i64 0, i64 %39
  %41 = load ptr, ptr %40, align 8, !tbaa !64
  %42 = sext i32 %21 to i64
  %43 = getelementptr inbounds [268435454 x ptr], ptr %38, i64 0, i64 %42
  store ptr %41, ptr %43, align 8, !tbaa !64
  %44 = load ptr, ptr %6, align 8, !tbaa !82
  %45 = load i32, ptr %44, align 8, !tbaa !84
  %46 = add nsw i32 %45, 1
  store i32 %46, ptr %44, align 8, !tbaa !84
  br label %_ZN6google8protobuf16RepeatedPtrFieldINS0_11MessageLiteEE23UnsafeArenaAddAllocatedEPS2_.exit

47:                                               ; preds = %35
  %48 = add nsw i32 %21, 1
  store i32 %48, ptr %7, align 8, !tbaa !84
  br label %_ZN6google8protobuf16RepeatedPtrFieldINS0_11MessageLiteEE23UnsafeArenaAddAllocatedEPS2_.exit

_ZN6google8protobuf16RepeatedPtrFieldINS0_11MessageLiteEE23UnsafeArenaAddAllocatedEPS2_.exit: ; preds = %14, %23, %31, %37, %47
  %49 = phi ptr [ %.pre5.i.i, %31 ], [ %7, %23 ], [ %7, %47 ], [ %44, %37 ], [ %17, %14 ]
  %50 = getelementptr inbounds nuw i8, ptr %49, i64 8
  %51 = getelementptr inbounds nuw i8, ptr %5, i64 8
  %52 = load i32, ptr %51, align 8, !tbaa !83
  %53 = add nsw i32 %52, 1
  store i32 %53, ptr %51, align 8, !tbaa !83
  %54 = sext i32 %52 to i64
  %55 = getelementptr inbounds [268435454 x ptr], ptr %50, i64 0, i64 %54
  store ptr %2, ptr %55, align 8, !tbaa !64
  ret void
}